target datalayout = "e-m:e-p270:32:32-p271:32:32-p272:64:64-i64:64-i128:128-f80:128-n8:16:32:64-S128"
target triple = "x86_64-pc-linux-gnu"

%struct.GlobalContext = type { %struct.HTable, ptr, ptr, ptr, ptr, ptr, ptr, ptr, ptr, i8, i32, i32, i32, ptr, ptr, %struct.HTable, %struct.HTable, %struct.Module_, %struct.DeclTable, %struct.DeclTable, %struct.Path_, ptr, ptr, ptr, ptr, ptr, ptr, ptr, [65536 x ptr], ptr, ptr, ptr }
%struct.HTable = type { i32, ptr }
%struct.Module_ = type { ptr, ptr, ptr, i16, i32, ptr, %struct.HTable, ptr, ptr, ptr, ptr, ptr, ptr, ptr, ptr, ptr }
%struct.DeclTable = type { i32, i32, i32, ptr }
%struct.Path_ = type { %union.SourceSpan, ptr, i32 }
%union.SourceSpan = type { i64 }
%struct.ScratchBuf = type { [65536 x i8], i32 }
%struct.VHeader_ = type { i32, i32, [0 x i8] }

@global_context = dso_local global %struct.GlobalContext zeroinitializer, align 8
@.str.101 = private unnamed_addr constant [9 x i8] c"SECTION#\00", align 1
@.str.102 = private unnamed_addr constant [45 x i8] c"Too many sections in source, max %d allowed.\00", align 1
@scratch_buffer = external global %struct.ScratchBuf, align 4

; Function Attrs: nounwind uwtable
define internal ptr @vec_new_(i64 noundef %0, i64 noundef %1) #0 {
  %3 = alloca i64, align 8
  %4 = alloca i64, align 8
  %5 = alloca ptr, align 8
  store i64 %0, ptr %3, align 8
  store i64 %1, ptr %4, align 8
  %6 = load i64, ptr %3, align 8
  %7 = load i64, ptr %4, align 8
  %8 = mul i64 %6, %7
  %9 = add i64 %8, 8
  %10 = call ptr @calloc_arena(i64 noundef %9)
  store ptr %10, ptr %5, align 8
  %11 = load i64, ptr %4, align 8
  %12 = trunc i64 %11 to i32
  %13 = load ptr, ptr %5, align 8
  %14 = getelementptr inbounds %struct.VHeader_, ptr %13, i32 0, i32 1
  store i32 %12, ptr %14, align 4
  %15 = load ptr, ptr %5, align 8
  ret ptr %15
}

; Function Attrs: nounwind uwtable
define internal i32 @fnv1a(ptr noundef %0, i32 noundef %1) #0 {
  %3 = alloca ptr, align 8
  %4 = alloca i32, align 4
  %5 = alloca i32, align 4
  %6 = alloca i32, align 4
  store ptr %0, ptr %3, align 8
  store i32 %1, ptr %4, align 4
  store i32 -2128831035, ptr %5, align 4
  store i32 0, ptr %6, align 4
  br label %7

7:                                                ; preds = %21, %2
  %8 = load i32, ptr %6, align 4
  %9 = load i32, ptr %4, align 4
  %10 = icmp ult i32 %8, %9
  br i1 %10, label %11, label %24

11:                                               ; preds = %7
  %12 = load ptr, ptr %3, align 8
  %13 = load i32, ptr %6, align 4
  %14 = zext i32 %13 to i64
  %15 = getelementptr inbounds i8, ptr %12, i64 %14
  %16 = load i8, ptr %15, align 1
  %17 = sext i8 %16 to i32
  %18 = load i32, ptr %5, align 4
  %19 = xor i32 %17, %18
  %20 = mul i32 %19, 16777619
  store i32 %20, ptr %5, align 4
  br label %21

21:                                               ; preds = %11
  %22 = load i32, ptr %6, align 4
  %23 = add i32 %22, 1
  store i32 %23, ptr %6, align 4
  br label %7, !llvm.loop !33

24:                                               ; preds = %7
  %25 = load i32, ptr %5, align 4
  ret i32 %25
}

; Function Attrs: nounwind uwtable
define internal ptr @expand_(ptr noundef %0, i64 noundef %1) #0 {
  %3 = alloca ptr, align 8
  %4 = alloca i64, align 8
  %5 = alloca ptr, align 8
  %6 = alloca ptr, align 8
  %7 = alloca i64, align 8
  store ptr %0, ptr %3, align 8
  store i64 %1, ptr %4, align 8
  %8 = load ptr, ptr %3, align 8
  %9 = icmp ne ptr %8, null
  br i1 %9, label %13, label %10

10:                                               ; preds = %2
  %11 = load i64, ptr %4, align 8
  %12 = call ptr @vec_new_(i64 noundef %11, i64 noundef 8)
  store ptr %12, ptr %5, align 8
  br label %16

13:                                               ; preds = %2
  %14 = load ptr, ptr %3, align 8
  %15 = getelementptr inbounds %struct.VHeader_, ptr %14, i64 -1
  store ptr %15, ptr %5, align 8
  br label %16

16:                                               ; preds = %13, %10
  %17 = load ptr, ptr %5, align 8
  %18 = getelementptr inbounds %struct.VHeader_, ptr %17, i32 0, i32 0
  %19 = load i32, ptr %18, align 4
  %20 = load ptr, ptr %5, align 8
  %21 = getelementptr inbounds %struct.VHeader_, ptr %20, i32 0, i32 1
  %22 = load i32, ptr %21, align 4
  %23 = icmp eq i32 %19, %22
  br i1 %23, label %24, label %49

24:                                               ; preds = %16
  %25 = load i64, ptr %4, align 8
  %26 = load ptr, ptr %5, align 8
  %27 = getelementptr inbounds %struct.VHeader_, ptr %26, i32 0, i32 1
  %28 = load i32, ptr %27, align 4
  %29 = shl i32 %28, 1
  %30 = zext i32 %29 to i64
  %31 = call ptr @vec_new_(i64 noundef %25, i64 noundef %30)
  store ptr %31, ptr %6, align 8
  %32 = load i64, ptr %4, align 8
  %33 = load ptr, ptr %5, align 8
  %34 = getelementptr inbounds %struct.VHeader_, ptr %33, i32 0, i32 1
  %35 = load i32, ptr %34, align 4
  %36 = zext i32 %35 to i64
  %37 = mul i64 %32, %36
  %38 = add i64 %37, 8
  store i64 %38, ptr %7, align 8
  %39 = load ptr, ptr %6, align 8
  %40 = load ptr, ptr %5, align 8
  %41 = load i64, ptr %7, align 8
  call void @llvm.memcpy.p0.p0.i64(ptr align 4 %39, ptr align 4 %40, i64 %41, i1 false)
  %42 = load ptr, ptr %6, align 8
  store ptr %42, ptr %5, align 8
  %43 = load ptr, ptr %5, align 8
  %44 = getelementptr inbounds %struct.VHeader_, ptr %43, i32 0, i32 1
  %45 = load i32, ptr %44, align 4
  %46 = shl i32 %45, 1
  %47 = load ptr, ptr %6, align 8
  %48 = getelementptr inbounds %struct.VHeader_, ptr %47, i32 0, i32 1
  store i32 %46, ptr %48, align 4
  br label %49

49:                                               ; preds = %24, %16
  %50 = load ptr, ptr %5, align 8
  %51 = getelementptr inbounds %struct.VHeader_, ptr %50, i32 0, i32 0
  %52 = load i32, ptr %51, align 4
  %53 = add i32 %52, 1
  store i32 %53, ptr %51, align 4
  %54 = load ptr, ptr %5, align 8
  %55 = getelementptr inbounds %struct.VHeader_, ptr %54, i64 1
  ret ptr %55
}

; Function Attrs: nounwind uwtable
define dso_local ptr @scratch_buffer_interned() #0 {
  %1 = alloca i32, align 4
  store i32 0, ptr %1, align 4
  %2 = load i32, ptr getelementptr inbounds (%struct.ScratchBuf, ptr @scratch_buffer, i32 0, i32 1), align 4
  %3 = load i32, ptr getelementptr inbounds (%struct.ScratchBuf, ptr @scratch_buffer, i32 0, i32 1), align 4
  %4 = call i32 @fnv1a(ptr noundef @scratch_buffer, i32 noundef %3)
  %5 = call ptr @symtab_add(ptr noundef @scratch_buffer, i32 noundef %2, i32 noundef %4, ptr noundef %1)
  ret ptr %5
}

; Function Attrs: nounwind uwtable
define dso_local zeroext i16 @global_context_register_section(ptr noundef %0) #0 {
  %2 = alloca i32, align 4
  %3 = alloca ptr, align 8
  %4 = alloca ptr, align 8
  %5 = alloca i32, align 4
  %6 = alloca ptr, align 8
  %7 = alloca ptr, align 8
  %8 = alloca i32, align 4
  %9 = alloca ptr, align 8
  %10 = alloca ptr, align 8
  %11 = alloca i16, align 2
  %12 = alloca ptr, align 8
  %13 = alloca i32, align 4
  %14 = alloca ptr, align 8
  %15 = alloca ptr, align 8
  %16 = alloca i32, align 4
  %17 = alloca i32, align 4
  %18 = alloca ptr, align 8
  %19 = alloca i32, align 4
  %20 = alloca ptr, align 8
  store ptr %0, ptr %12, align 8
  call void @scratch_buffer_clear()
  call void @scratch_buffer_append(ptr noundef @.str.101)
  %21 = load ptr, ptr %12, align 8
  call void @scratch_buffer_append(ptr noundef %21)
  store i32 0, ptr %13, align 4
  %22 = call ptr @scratch_buffer_interned()
  store ptr %22, ptr %14, align 8
  %23 = load ptr, ptr getelementptr inbounds (%struct.GlobalContext, ptr @global_context, i32 0, i32 31), align 8
  store ptr %23, ptr %15, align 8
  %24 = load ptr, ptr %15, align 8
  store ptr %24, ptr %3, align 8
  %25 = load ptr, ptr %3, align 8
  %26 = icmp ne ptr %25, null
  br i1 %26, label %28, label %27

27:                                               ; preds = %1
  store i32 0, ptr %2, align 4
  br label %33

28:                                               ; preds = %1
  %29 = load ptr, ptr %3, align 8
  store ptr %29, ptr %4, align 8
  %30 = load ptr, ptr %4, align 8
  %31 = getelementptr inbounds %struct.VHeader_, ptr %30, i64 -1
  %32 = load i32, ptr %31, align 4
  store i32 %32, ptr %2, align 4
  br label %33

33:                                               ; preds = %28, %27
  %34 = load i32, ptr %2, align 4
  store i32 %34, ptr %16, align 4
  store i32 0, ptr %17, align 4
  br label %35

35:                                               ; preds = %53, %33
  %36 = load i32, ptr %17, align 4
  %37 = load i32, ptr %16, align 4
  %38 = icmp ult i32 %36, %37
  br i1 %38, label %39, label %56

39:                                               ; preds = %35
  %40 = load ptr, ptr %15, align 8
  %41 = load i32, ptr %17, align 4
  %42 = zext i32 %41 to i64
  %43 = getelementptr inbounds ptr, ptr %40, i64 %42
  %44 = load ptr, ptr %43, align 8
  store ptr %44, ptr %18, align 8
  %45 = load ptr, ptr %14, align 8
  %46 = load ptr, ptr %18, align 8
  %47 = icmp eq ptr %45, %46
  br i1 %47, label %48, label %52

48:                                               ; preds = %39
  %49 = load i32, ptr %17, align 4
  %50 = add i32 %49, 1
  %51 = trunc i32 %50 to i16
  store i16 %51, ptr %11, align 2
  br label %98

52:                                               ; preds = %39
  br label %53

53:                                               ; preds = %52
  %54 = load i32, ptr %17, align 4
  %55 = add i32 %54, 1
  store i32 %55, ptr %17, align 4
  br label %35, !llvm.loop !32

56:                                               ; preds = %35
  br label %57

57:                                               ; preds = %56
  br label %58

58:                                               ; preds = %57
  %59 = load ptr, ptr getelementptr inbounds (%struct.GlobalContext, ptr @global_context, i32 0, i32 31), align 8
  store ptr %59, ptr %6, align 8
  %60 = load ptr, ptr %6, align 8
  %61 = icmp ne ptr %60, null
  br i1 %61, label %63, label %62

62:                                               ; preds = %58
  store i32 0, ptr %5, align 4
  br label %68

63:                                               ; preds = %58
  %64 = load ptr, ptr %6, align 8
  store ptr %64, ptr %7, align 8
  %65 = load ptr, ptr %7, align 8
  %66 = getelementptr inbounds %struct.VHeader_, ptr %65, i64 -1
  %67 = load i32, ptr %66, align 4
  store i32 %67, ptr %5, align 4
  br label %68

68:                                               ; preds = %63, %62
  %69 = load i32, ptr %5, align 4
  store i32 %69, ptr %19, align 4
  %70 = load i32, ptr %19, align 4
  %71 = icmp uge i32 %70, 65534
  br i1 %71, label %72, label %73

72:                                               ; preds = %68
  call void (ptr, ...) @error_exit(ptr noundef @.str.102, i32 noundef 65534) #8
  unreachable

73:                                               ; preds = %68
  br label %74

74:                                               ; preds = %73
  %75 = load ptr, ptr getelementptr inbounds (%struct.GlobalContext, ptr @global_context, i32 0, i32 31), align 8
  %76 = call ptr @expand_(ptr noundef %75, i64 noundef 8)
  store ptr %76, ptr %20, align 8
  %77 = load ptr, ptr %20, align 8
  store ptr %77, ptr getelementptr inbounds (%struct.GlobalContext, ptr @global_context, i32 0, i32 31), align 8
  %78 = load ptr, ptr %14, align 8
  %79 = load ptr, ptr getelementptr inbounds (%struct.GlobalContext, ptr @global_context, i32 0, i32 31), align 8
  %80 = load ptr, ptr getelementptr inbounds (%struct.GlobalContext, ptr @global_context, i32 0, i32 31), align 8
  store ptr %80, ptr %9, align 8
  %81 = load ptr, ptr %9, align 8
  %82 = icmp ne ptr %81, null
  br i1 %82, label %84, label %83

83:                                               ; preds = %74
  store i32 0, ptr %8, align 4
  br label %89

84:                                               ; preds = %74
  %85 = load ptr, ptr %9, align 8
  store ptr %85, ptr %10, align 8
  %86 = load ptr, ptr %10, align 8
  %87 = getelementptr inbounds %struct.VHeader_, ptr %86, i64 -1
  %88 = load i32, ptr %87, align 4
  store i32 %88, ptr %8, align 4
  br label %89

89:                                               ; preds = %84, %83
  %90 = load i32, ptr %8, align 4
  %91 = sub i32 %90, 1
  %92 = zext i32 %91 to i64
  %93 = getelementptr inbounds ptr, ptr %79, i64 %92
  store ptr %78, ptr %93, align 8
  br label %94

94:                                               ; preds = %89
  %95 = load i32, ptr %19, align 4
  %96 = add i32 %95, 1
  %97 = trunc i32 %96 to i16
  store i16 %97, ptr %11, align 2
  br label %98

98:                                               ; preds = %94, %48
  %99 = load i16, ptr %11, align 2
  ret i16 %99
}