; Function Attrs: nounwind uwtable
define dso_local zeroext i16 @global_context_register_section(ptr noundef %0) local_unnamed_addr #0 {
  %2 = alloca i32, align 4
  tail call void @scratch_buffer_clear() #20
  tail call void @scratch_buffer_append(ptr noundef nonnull @.str.101) #20
  tail call void @scratch_buffer_append(ptr noundef %0) #20
  call void @llvm.lifetime.start.p0(i64 4, ptr nonnull %2)
  store i32 0, ptr %2, align 4
  %3 = load i32, ptr getelementptr inbounds (%struct.ScratchBuf, ptr @scratch_buffer, i64 0, i32 1), align 4
  %.not.i.i = icmp eq i32 %3, 0
  br i1 %.not.i.i, label %scratch_buffer_interned.exit, label %.lr.ph.preheader.i.i

.lr.ph.preheader.i.i:                             ; preds = %1
  %wide.trip.count.i.i = zext i32 %3 to i64
  br label %.lr.ph.i.i

.lr.ph.i.i:                                       ; preds = %.lr.ph.i.i, %.lr.ph.preheader.i.i
  %indvars.iv.i.i = phi i64 [ 0, %.lr.ph.preheader.i.i ], [ %indvars.iv.next.i.i, %.lr.ph.i.i ]
  %.067.i.i = phi i32 [ -2128831035, %.lr.ph.preheader.i.i ], [ %8, %.lr.ph.i.i ]
  %4 = getelementptr inbounds i8, ptr @scratch_buffer, i64 %indvars.iv.i.i
  %5 = load i8, ptr %4, align 1
  %6 = sext i8 %5 to i32
  %7 = xor i32 %.067.i.i, %6
  %8 = mul i32 %7, 16777619
  %indvars.iv.next.i.i = add nuw nsw i64 %indvars.iv.i.i, 1
  %exitcond.not.i.i = icmp eq i64 %indvars.iv.next.i.i, %wide.trip.count.i.i
  br i1 %exitcond.not.i.i, label %scratch_buffer_interned.exit, label %.lr.ph.i.i, !llvm.loop !31

scratch_buffer_interned.exit:                     ; preds = %.lr.ph.i.i, %1
  %.06.lcssa.i.i = phi i32 [ -2128831035, %1 ], [ %8, %.lr.ph.i.i ]
  %9 = call ptr @symtab_add(ptr noundef nonnull @scratch_buffer, i32 noundef %3, i32 noundef %.06.lcssa.i.i, ptr noundef nonnull %2) #20
  call void @llvm.lifetime.end.p0(i64 4, ptr nonnull %2)
  %10 = load ptr, ptr getelementptr inbounds (%struct.GlobalContext, ptr @global_context, i64 0, i32 31), align 8
  %.not = icmp eq ptr %10, null
  br i1 %.not, label %._crit_edge, label %11

11:                                               ; preds = %scratch_buffer_interned.exit
  %12 = getelementptr inbounds i8, ptr %10, i64 -8
  %13 = load i32, ptr %12, align 4
  %.not43 = icmp eq i32 %13, 0
  br i1 %.not43, label %.loopexit48, label %.lr.ph.preheader

.lr.ph.preheader:                                 ; preds = %11
  %wide.trip.count = zext i32 %13 to i64
  br label %.lr.ph

.lr.ph:                                           ; preds = %.lr.ph.preheader, %17
  %indvars.iv = phi i64 [ 0, %.lr.ph.preheader ], [ %indvars.iv.next, %17 ]
  %14 = getelementptr inbounds ptr, ptr %10, i64 %indvars.iv
  %15 = load ptr, ptr %14, align 8
  %16 = icmp eq ptr %9, %15
  br i1 %16, label %.loopexit.loopexit, label %17

17:                                               ; preds = %.lr.ph
  %indvars.iv.next = add nuw nsw i64 %indvars.iv, 1
  %exitcond.not = icmp eq i64 %indvars.iv.next, %wide.trip.count
  br i1 %exitcond.not, label %.loopexit48, label %.lr.ph, !llvm.loop !33

.loopexit48:                                      ; preds = %17, %11
  %18 = getelementptr inbounds i8, ptr %10, i64 -8
  %19 = load i32, ptr %18, align 4
  %20 = icmp ugt i32 %19, 65533
  br i1 %20, label %21, label %24

21:                                               ; preds = %.loopexit48
  call void (ptr, ...) @error_exit(ptr noundef nonnull @.str.102, i32 noundef 65534) #21
  unreachable

._crit_edge:                                      ; preds = %scratch_buffer_interned.exit
  %22 = call ptr @calloc_arena(i64 noundef 72) #20
  %23 = getelementptr inbounds i8, ptr %22, i64 4
  store i32 8, ptr %23, align 4
  %.pre = load i32, ptr %22, align 4
  br label %25

24:                                               ; preds = %.loopexit48
  %.phi.trans.insert.i = getelementptr inbounds i8, ptr %10, i64 -4
  %.pre.i = load i32, ptr %.phi.trans.insert.i, align 4
  br label %25

25:                                               ; preds = %24, %._crit_edge
  %26 = phi i32 [ %19, %24 ], [ %.pre, %._crit_edge ]
  %.0263639 = phi i32 [ %19, %24 ], [ 0, %._crit_edge ]
  %27 = phi i32 [ %.pre.i, %24 ], [ 8, %._crit_edge ]
  %.0.i = phi ptr [ %18, %24 ], [ %22, %._crit_edge ]
  %28 = icmp eq i32 %26, %27
  br i1 %28, label %29, label %43

29:                                               ; preds = %25
  %30 = getelementptr inbounds i8, ptr %.0.i, i64 4
  %31 = shl i32 %26, 1
  %32 = zext i32 %31 to i64
  %33 = shl nuw nsw i64 %32, 3
  %34 = or disjoint i64 %33, 8
  %35 = call ptr @calloc_arena(i64 noundef %34) #20
  %36 = getelementptr inbounds i8, ptr %35, i64 4
  store i32 %31, ptr %36, align 4
  %37 = load i32, ptr %30, align 4
  %38 = zext i32 %37 to i64
  %39 = shl nuw nsw i64 %38, 3
  %40 = add nuw nsw i64 %39, 8
  call void @llvm.memcpy.p0.p0.i64(ptr noundef nonnull align 4 dereferenceable(1) %35, ptr noundef nonnull align 4 dereferenceable(1) %.0.i, i64 %40, i1 false)
  %41 = load i32, ptr %36, align 4
  %42 = shl i32 %41, 1
  store i32 %42, ptr %36, align 4
  %.pre18.i = load i32, ptr %35, align 4
  br label %43

43:                                               ; preds = %25, %29
  %44 = phi i32 [ %.pre18.i, %29 ], [ %26, %25 ]
  %.1.i = phi ptr [ %35, %29 ], [ %.0.i, %25 ]
  %45 = add i32 %44, 1
  store i32 %45, ptr %.1.i, align 4
  %46 = getelementptr inbounds i8, ptr %.1.i, i64 8
  store ptr %46, ptr getelementptr inbounds (%struct.GlobalContext, ptr @global_context, i64 0, i32 31), align 8
  %47 = load i32, ptr %.1.i, align 4
  %48 = add i32 %47, -1
  %49 = zext i32 %48 to i64
  %50 = getelementptr inbounds ptr, ptr %46, i64 %49
  store ptr %9, ptr %50, align 8
  br label %.loopexit

.loopexit.loopexit:                               ; preds = %.lr.ph
  %51 = trunc nuw i64 %indvars.iv to i32
  br label %.loopexit

.loopexit:                                        ; preds = %.loopexit.loopexit, %43
  %.029.in.in = phi i32 [ %.0263639, %43 ], [ %51, %.loopexit.loopexit ]
  %.029.in = trunc i32 %.029.in.in to i16
  %.029 = add i16 %.029.in, 1
  ret i16 %.029
}